(lp0
(I0
F0.0044468710167850185
tp1
a(I1
F0.008137846182876777
tp2
a(I2
F0.007516358554074132
tp3
a(I3
F0.0016944166666666668
tp4
a(I4
F0.00708958829905499
tp5
a(I5
F0.0009637142857142856
tp6
a(I6
F0.003396583246325553
tp7
a(I8
F0.008114621839551034
tp8
a(I9
F0.038198986850287525
tp9
a(I10
F0.036625947178236466
tp10
a(I11
F0.025669541553627048
tp11
a.