(lp0
(I0
F0.004483260003604267
tp1
a(I1
F0.008173574565068233
tp2
a(I2
F0.0074933303703424384
tp3
a(I3
F0.0016944166666666668
tp4
a(I4
F0.007114411785381269
tp5
a(I5
F0.0009637142857142856
tp6
a(I6
F0.003377116299119668
tp7
a(I8
F0.008260128096735951
tp8
a(I9
F0.038237910289341974
tp9
a(I10
F0.03663378123320109
tp10
a(I11
F0.02567014027674461
tp11
a.