(lp0
(I32
I2
tp1
a(I1000
I1
tp2
a(I16
I2
tp3
a(I1992
I1
tp4
a(I8
I4
tp5
a(I200
I2
tp6
a(I1
I832
tp7
a(I1057
I1
tp8
a(I201
I2
tp9
a(I193
I1
tp10
a(I17
I1
tp11
a(I9
I3
tp12
a(I969
I1
tp13
a(I25
I1
tp14
a(I2
I91
tp15
a(I34
I1
tp16
a(I10
I2
tp17
a(I50
I13
tp18
a(I18
I2
tp19
a(I1050
I7
tp20
a(I1938
I1
tp21
a(I779
I1
tp22
a(I379
I1
tp23
a(I11
I2
tp24
a(I1963
I1
tp25
a(I3
I10
tp26
a(I235
I1
tp27
a(I155
I1
tp28
a(I963
I1
tp29
a(I4
I19
tp30
a(I972
I2
tp31
a(I956
I1
tp32
a(I12
I4
tp33
a(I3588
I1
tp34
a(I2100
I1
tp35
a(I100
I5
tp36
a(I60
I1
tp37
a(I988
I1
tp38
a(I20
I3
tp39
a(I101
I1
tp40
a(I13
I5
tp41
a(I973
I1
tp42
a(I29
I1
tp43
a(I221
I1
tp44
a(I949
I1
tp45
a(I21
I1
tp46
a(I189
I17
tp47
a(I981
I1
tp48
a(I22
I1
tp49
a(I198
I2
tp50
a(I470
I1
tp51
a(I46
I1
tp52
a(I14
I1
tp53
a(I190
I2
tp54
a(I3710
I1
tp55
a(I374
I1
tp56
a(I6
I19
tp57
a(I38
I1
tp58
a(I102
I1
tp59
a(I30
I3
tp60
a(I39
I1
tp61
a(I2111
I1
tp62
a(I7
I1
tp63
a(I15
I50
tp64
a(I55
I7
tp65
a(I111
I1
tp66
a(I95
I1
tp67
a(I199
I1
tp68
a(I31
I2
tp69
a.