(lp0
(I0
F0.004483260003604266
tp1
a(I1
F0.00817357456506823
tp2
a(I2
F0.007493330370342434
tp3
a(I3
F0.0016944166666666668
tp4
a(I4
F0.0071144117853812645
tp5
a(I5
F0.0009637142857142856
tp6
a(I6
F0.003377116299119668
tp7
a(I8
F0.008260128096735951
tp8
a(I9
F0.03823791028934198
tp9
a(I10
F0.03663378123320109
tp10
a(I11
F0.025670140276744604
tp11
a.