(lp0
(I0
(F0.0
F3.474368493480847
tp1
tp2
a(I1
(F1.0000023245110392
F4.262960311298518
tp3
tp4
a(I2
(F2.0000025707337388
F3.5521375682566085
tp5
tp6
a(I3
(F2.999806538982395
F5.853066357129038
tp7
tp8
a.