(lp0
(I0
F0.004446871016785017
tp1
a(I1
F0.008137846182876775
tp2
a(I2
F0.007516358554074134
tp3
a(I3
F0.0016944166666666668
tp4
a(I4
F0.007089588299054989
tp5
a(I5
F0.0009637142857142856
tp6
a(I6
F0.0033965832463255523
tp7
a(I8
F0.008114621839551034
tp8
a(I9
F0.03819898685028752
tp9
a(I10
F0.03662594717823646
tp10
a(I11
F0.025669541553627044
tp11
a.