(lp0
(I0
I348
tp1
a(I1
I3525
tp2
a(I2
I261
tp3
a(I3
I587
tp4
a(I4
I1200
tp5
a(I5
I747
tp6
a(I6
I265
tp7
a(I7
I6617
tp8
a(I8
I965
tp9
a(I9
I1587
tp10
a(I10
I521
tp11
a(I11
I282
tp12
a(I12
I2799
tp13
a(I13
I714
tp14
a(I14
I506
tp15
a(I15
I188
tp16
a(I16
I1523
tp17
a(I17
I2268
tp18
a(I18
I6938
tp19
a(I19
I3639
tp20
a(I20
I1767
tp21
a(I21
I12979
tp22
a(I22
I2942
tp23
a(I23
I745
tp24
a(I24
I949
tp25
a(I25
I25172
tp26
a(I26
I8479
tp27
a(I27
I12348
tp28
a(I28
I3445
tp29
a(I29
I2744
tp30
a(I30
I4445
tp31
a(I31
I17897
tp32
a(I32
I1716
tp33
a(I33
I15586
tp34
a(I34
I14650
tp35
a(I35
I7679
tp36
a(I36
I2405
tp37
a(I37
I2888
tp38
a(I38
I3006
tp39
a(I39
I2271
tp40
a(I40
I496
tp41
a(I41
I9830
tp42
a(I42
I6262
tp43
a(I43
I13407
tp44
a(I44
I4094
tp45
a(I45
I1843
tp46
a(I46
I9346
tp47
a(I47
I17507
tp48
a(I48
I10310
tp49
a(I49
I14946
tp50
a(I50
I1509
tp51
a(I51
I9831
tp52
a(I52
I3210
tp53
a(I53
I7814
tp54
a(I54
I6905
tp55
a(I55
I3860
tp56
a(I56
I21827
tp57
a(I57
I16754
tp58
a(I58
I14359
tp59
a(I59
I11664
tp60
a(I60
I19815
tp61
a(I61
I21898
tp62
a(I62
I21072
tp63
a(I63
I30885
tp64
a(I64
I15409
tp65
a(I65
I16615
tp66
a(I66
I17975
tp67
a(I67
I19830
tp68
a(I68
I10562
tp69
a(I69
I18019
tp70
a(I70
I23259
tp71
a(I71
I18113
tp72
a(I72
I12042
tp73
a(I73
I15279
tp74
a(I74
I18944
tp75
a(I75
I16892
tp76
a(I76
I10733
tp77
a(I77
I4013
tp78
a(I78
I3531
tp79
a(I79
I15226
tp80
a(I80
I5746
tp81
a(I81
I4298
tp82
a(I82
I10693
tp83
a(I83
I13238
tp84
a(I84
I7636
tp85
a(I85
I7442
tp86
a(I86
I8242
tp87
a(I87
I14707
tp88
a(I88
I16197
tp89
a(I89
I20522
tp90
a(I90
I14897
tp91
a(I91
I7011
tp92
a(I92
I9030
tp93
a(I93
I9654
tp94
a(I94
I7268
tp95
a(I95
I6443
tp96
a(I96
I954
tp97
a(I97
I2874
tp98
a(I98
I4932
tp99
a(I99
I1447
tp100
a(I100
I1095
tp101
a(I101
I19236
tp102
a(I102
I15729
tp103
a(I103
I11462
tp104
a(I104
I3610
tp105
a(I105
I3216
tp106
a(I106
I1682
tp107
a(I107
I1415
tp108
a(I108
I1443
tp109
a(I109
I1024
tp110
a(I110
I2460
tp111
a(I111
I3258
tp112
a(I112
I3215
tp113
a(I113
I11962
tp114
a(I114
I12346
tp115
a(I115
I410
tp116
a(I116
I14099
tp117
a(I117
I15993
tp118
a(I118
I18314
tp119
a(I119
I11795
tp120
a(I120
I7429
tp121
a(I121
I6416
tp122
a(I122
I3200
tp123
a(I123
I6018
tp124
a(I124
I1515
tp125
a(I125
I281
tp126
a(I126
I152
tp127
a(I127
I5232
tp128
a(I128
I1935
tp129
a(I129
I7354
tp130
a(I130
I5182
tp131
a(I131
I2691
tp132
a(I132
I1962
tp133
a(I133
I1361
tp134
a(I134
I2694
tp135
a(I135
I6949
tp136
a(I136
I1624
tp137
a(I137
I4792
tp138
a(I138
I4612
tp139
a(I139
I2585
tp140
a(I140
I3560
tp141
a(I141
I7705
tp142
a(I142
I1322
tp143
a(I143
I1236
tp144
a(I144
I7529
tp145
a(I145
I1684
tp146
a(I146
I3001
tp147
a(I147
I10243
tp148
a(I148
I832
tp149
a(I149
I1502
tp150
a(I150
I850
tp151
a(I151
I3786
tp152
a(I152
I4804
tp153
a(I153
I722
tp154
a(I154
I413
tp155
a(I155
I375
tp156
a(I156
I597
tp157
a(I157
I747
tp158
a(I158
I1607
tp159
a(I159
I731
tp160
a(I160
I2583
tp161
a(I161
I12497
tp162
a(I162
I2560
tp163
a(I163
I4000
tp164
a(I164
I3777
tp165
a(I165
I3583
tp166
a(I166
I9675
tp167
a(I167
I3863
tp168
a(I168
I7994
tp169
a(I169
I5653
tp170
a(I170
I2117
tp171
a.