(lp0
(I0
I348
tp1
a(I1
I3525
tp2
a(I2
I261
tp3
a(I3
I587
tp4
a(I4
I1200
tp5
a(I5
I747
tp6
a(I6
I265
tp7
a(I7
I6617
tp8
a(I8
I965
tp9
a(I9
I1587
tp10
a(I10
I521
tp11
a(I11
I282
tp12
a(I12
I2799
tp13
a(I13
I714
tp14
a(I14
I506
tp15
a(I15
I188
tp16
a(I16
I1523
tp17
a(I17
I2268
tp18
a(I18
I6938
tp19
a(I19
I3639
tp20
a(I20
I1767
tp21
a(I21
I12979
tp22
a(I22
I2942
tp23
a(I23
I745
tp24
a(I24
I949
tp25
a(I25
I25172
tp26
a(I26
I8479
tp27
a(I27
I12348
tp28
a(I28
I3445
tp29
a(I29
I2744
tp30
a(I30
I4445
tp31
a(I31
I17897
tp32
a(I32
I1716
tp33
a(I33
I15586
tp34
a(I34
I14650
tp35
a(I35
I7679
tp36
a(I36
I2405
tp37
a(I37
I2888
tp38
a(I38
I3006
tp39
a(I39
I2271
tp40
a(I40
I496
tp41
a(I41
I9830
tp42
a(I42
I6262
tp43
a(I43
I13407
tp44
a(I44
I4094
tp45
a(I45
I1843
tp46
a(I46
I9346
tp47
a(I47
I17507
tp48
a(I48
I10310
tp49
a(I49
I14946
tp50
a(I50
I1509
tp51
a(I51
I9831
tp52
a(I52
I3210
tp53
a(I53
I7814
tp54
a(I54
I6905
tp55
a(I55
I3860
tp56
a(I56
I21827
tp57
a(I57
I16754
tp58
a(I58
I14359
tp59
a(I59
I11664
tp60
a(I60
I19815
tp61
a(I61
I21898
tp62
a(I62
I21072
tp63
a(I63
I30885
tp64
a(I64
I15409
tp65
a(I65
I16615
tp66
a(I66
I17975
tp67
a(I67
I19830
tp68
a(I68
I10562
tp69
a(I69
I18019
tp70
a(I70
I23259
tp71
a(I71
I18113
tp72
a(I72
I12042
tp73
a(I73
I15279
tp74
a(I74
I18944
tp75
a(I75
I16892
tp76
a(I76
I10733
tp77
a(I77
I4013
tp78
a(I78
I3531
tp79
a(I79
I15226
tp80
a(I80
I5746
tp81
a(I81
I4298
tp82
a(I82
I10693
tp83
a(I83
I13238
tp84
a(I84
I7636
tp85
a(I85
I7442
tp86
a(I86
I8242
tp87
a(I87
I14707
tp88
a(I88
I16197
tp89
a(I89
I20522
tp90
a(I90
I2296
tp91
a.