(lp0
(I0
F1.564582763641201
tp1
a(I1
F0.4943213503624815
tp2
a(I2
F0.032990921527173235
tp3
a(I4
F0.0036521060318057004
tp4
a(I6
F0.001198853270784467
tp5
a(I8
F0.016969568143975627
tp6
a(I9
F0.02318333559171707
tp7
a(I10
F0.04940711462450593
tp8
a.