(lp0
(I0
F0.8174734801289467
tp1
a(I1
F0.18816278252703708
tp2
a(I2
F0.042669161097669564
tp3
a(I3
F0.14897760467380722
tp4
a(I4
F0.003068518051438212
tp5
a(I6
F0.0006595976141947908
tp6
a(I8
F0.011767708496937333
tp7
a(I9
F0.05877339146047948
tp8
a(I10
F0.3585174625801853
tp9
a.