(lp0
(I0
F0.017322957807062136
tp1
a(I1
F0.1037210665104014
tp2
a(I2
F0.0735202492211838
tp3
a(I4
F0.06605800214822771
tp4
a(I6
F0.005722460658082976
tp5
a(I8
F0.15384615384615385
tp6
a(I9
F0.15286624203821655
tp7
a(I10
F0.16666666666666666
tp8
a.