(lp0
(I0
F17487.848800548265
tp1
a(I1
F17827.607059920905
tp2
a(I2
F18002.061717289158
tp3
a(I3
F17163.936711056216
tp4
a(I4
F17258.05479765278
tp5
a(I5
F17159.074445293492
tp6
a(I6
F17172.41601136911
tp7
a(I7
F17444.877468779065
tp8
a(I8
F17657.801261157365
tp9
a(I9
F17875.46217242044
tp10
a(I10
F17915.71926746814
tp11
a(I11
F17979.38046038777
tp12
a(I12
F18274.52343014959
tp13
a(I13
F18432.216843809707
tp14
a(I14
F18403.75063359909
tp15
a(I15
F18227.273085809655
tp16
a(I16
F18225.00147075534
tp17
a(I17
F18353.78968581464
tp18
a(I18
F18601.46646939909
tp19
a(I19
F17687.01153053967
tp20
a(I20
F17801.88633304924
tp21
a(I21
F17840.263453310374
tp22
a(I22
F17479.75609123915
tp23
a(I23
F17435.809249487702
tp24
a(I24
F17323.18865751946
tp25
a(I25
F18162.856371389586
tp26
a(I26
F18422.5904809018
tp27
a(I27
F18629.565149479793
tp28
a(I28
F18854.813840139595
tp29
a(I29
F19195.92286849007
tp30
a(I30
F19273.52831959915
tp31
a(I31
F19466.348012329963
tp32
a(I32
F19217.607269474276
tp33
a(I33
F20000.944455916397
tp34
a(I34
F18917.615604294835
tp35
a(I35
F18702.443596869525
tp36
a(I36
F18665.041936168785
tp37
a(I37
F18299.918608215794
tp38
a(I38
F18191.58810122726
tp39
a(I39
F18392.046075393177
tp40
a(I40
F18316.996879985058
tp41
a(I41
F17847.649505410005
tp42
a(I42
F18021.656688008577
tp43
a(I43
F19118.515666180938
tp44
a(I44
F19206.70411476147
tp45
a(I45
F19339.022775539095
tp46
a(I46
F19349.913656768447
tp47
a(I47
F19422.13225354866
tp48
a(I48
F19324.525742778274
tp49
a(I49
F19185.733411461697
tp50
a(I50
F19421.51339129784
tp51
a(I51
F19658.412280216802
tp52
a(I52
F19637.81716398392
tp53
a(I53
F19776.996821338096
tp54
a(I54
F19731.60485713448
tp55
a(I55
F19402.6966326421
tp56
a(I56
F18863.801520110275
tp57
a(I57
F19681.431785899218
tp58
a(I58
F19321.9933969479
tp59
a(I59
F19120.172391573746
tp60
a(I60
F19446.544057946816
tp61
a(I61
F19821.519765862668
tp62
a(I62
F19392.680668747103
tp63
a(I63
F18832.187329569722
tp64
a(I64
F18453.60069305855
tp65
a(I65
F18531.103986395756
tp66
a(I66
F18416.967738614232
tp67
a(I67
F18342.771303957295
tp68
a(I68
F18279.268418696687
tp69
a(I69
F18148.497162217882
tp70
a(I70
F18083.468510657836
tp71
a(I71
F17604.587671039146
tp72
a(I72
F17568.134445265066
tp73
a(I73
F18421.612695575983
tp74
a(I74
F18217.61816324061
tp75
a(I75
F18270.61120363783
tp76
a(I76
F17878.43316006714
tp77
a(I77
F17298.596801367243
tp78
a(I78
F17233.34720666896
tp79
a(I79
F17613.72504229013
tp80
a(I80
F18031.15700393752
tp81
a(I81
F18122.582219198714
tp82
a(I82
F17722.16948676862
tp83
a(I83
F18349.189112268235
tp84
a(I84
F18759.8877718968
tp85
a(I85
F18602.673120296873
tp86
a(I86
F18989.636415728244
tp87
a(I87
F18469.111083822587
tp88
a(I88
F18980.44031067304
tp89
a(I89
F18832.48001489758
tp90
a(I90
F18642.76365039752
tp91
a(I91
F18771.171473937608
tp92
a(I92
F19086.103958398206
tp93
a(I93
F18870.869257870596
tp94
a(I94
F19075.071290586613
tp95
a(I95
F18975.037990666777
tp96
a(I96
F18911.10901271705
tp97
a(I97
F18976.879213237542
tp98
a(I98
F18230.15937035871
tp99
a(I99
F18369.378129844612
tp100
a(I100
F18824.28895780628
tp101
a(I101
F19662.77684047546
tp102
a(I102
F19833.511992747546
tp103
a(I103
F18822.730119968
tp104
a(I104
F19004.5637003685
tp105
a(I105
F19080.17233399245
tp106
a(I106
F18993.1950463487
tp107
a(I107
F19379.76059051617
tp108
a(I108
F19424.33440823191
tp109
a(I109
F19108.606827002615
tp110
a(I110
F19093.181526977103
tp111
a(I111
F19121.613560228147
tp112
a(I112
F18612.901766615574
tp113
a(I113
F19069.157666157407
tp114
a(I114
F19589.621187424887
tp115
a(I115
F18982.68251972099
tp116
a(I116
F18934.915480219854
tp117
a(I117
F19995.726283680502
tp118
a(I118
F19128.082025359872
tp119
a(I119
F19352.657643795184
tp120
a(I120
F19761.59959379836
tp121
a(I121
F19368.54410199273
tp122
a(I122
F19232.71286470962
tp123
a(I123
F20011.044719434252
tp124
a(I124
F19614.22054537352
tp125
a(I125
F19281.291162158974
tp126
a(I126
F18712.953105338387
tp127
a(I127
F17943.771527979658
tp128
a(I128
F17993.848102634285
tp129
a(I129
F17932.13499339915
tp130
a(I130
F17357.423189898807
tp131
a(I131
F17794.481101700607
tp132
a(I132
F17530.065921020185
tp133
a(I133
F17798.993632298992
tp134
a(I134
F17786.897703289378
tp135
a(I135
F17716.575577869386
tp136
a(I136
F17664.417923326982
tp137
a(I137
F18068.13180964698
tp138
a(I138
F18149.129924168807
tp139
a(I139
F18228.89786339779
tp140
a(I140
F18391.77301097247
tp141
a(I141
F18725.375912384516
tp142
a(I142
F18573.451872058406
tp143
a(I143
F18558.22018053754
tp144
a(I144
F18604.83938374332
tp145
a(I145
F18754.779091035427
tp146
a(I146
F18257.864151438665
tp147
a(I147
F18590.808585798684
tp148
a(I148
F18590.5761660188
tp149
a(I149
F18949.63450999315
tp150
a(I150
F19182.55090771729
tp151
a(I151
F19259.30680250693
tp152
a(I152
F19240.053266477382
tp153
a(I153
F18874.983648939604
tp154
a(I154
F18783.01098130935
tp155
a(I155
F18764.492493544516
tp156
a(I156
F18836.059733258946
tp157
a(I157
F18835.930518729427
tp158
a(I158
F18695.842857199248
tp159
a(I159
F18562.990390710624
tp160
a(I160
F18400.125947706947
tp161
a(I161
F18549.948717121133
tp162
a(I162
F19384.047088391475
tp163
a(I163
F19137.767575057966
tp164
a(I164
F18913.79868909798
tp165
a(I165
F18952.161985168103
tp166
a(I166
F19158.669674459525
tp167
a(I167
F19014.60463253129
tp168
a(I168
F18526.62882647935
tp169
a(I169
F17634.265931624457
tp170
a(I170
F7366.004751245397
tp171
a.